target datalayout = "e-m:e-p270:32:32-p271:32:32-p272:64:64-i64:64-i128:128-f80:128-n8:16:32:64-S128"
target triple = "x86_64-pc-linux-gnu"

%struct.H5FL_seq_head_t = type { %struct.H5FL_blk_head_t, i64 }
%struct.H5FL_blk_head_t = type { i8, i32, i32, i64, ptr, ptr }
%struct.H5FL_reg_head_t = type { i8, i32, i32, ptr, i64, ptr }
%struct.H5FS_t = type { %struct.H5C_cache_entry_t, i64, i64, i64, i64, i32, i16, i32, i32, i32, i64, i64, i64, i64, i32, i64, i64, ptr, i8, i32, i8, i8, i32, i64, i64, i64, ptr }
%struct.H5C_cache_entry_t = type { ptr, i64, i64, ptr, i8, ptr, i8, i8, i8, i8, i32, i8, i8, i8, i8, i8, i32, ptr, i32, i32, i32, i32, i32, i8, i8, ptr, ptr, ptr, ptr, ptr, ptr, i8, i32, i8, i64, ptr, i64, i64, i32, i8, i32, i32, i8, ptr, ptr, ptr }
%struct.H5FS_section_class_t = type { i32, i64, i32, ptr, ptr, ptr, ptr, ptr, ptr, ptr, ptr, ptr, ptr, ptr, ptr, ptr, ptr }

@H5_H5FS_section_class_t_seq_free_list = global %struct.H5FL_seq_head_t { %struct.H5FL_blk_head_t { i8 0, i32 0, i32 0, i64 0, ptr @.str, ptr null }, i64 136 }, align 8
@H5_H5FS_t_reg_free_list = global %struct.H5FL_reg_head_t { i8 0, i32 0, i32 0, ptr @.str.1, i64 416, ptr null }, align 8
@.str.2 = private unnamed_addr constant [98 x i8] c"generated/home/dtcxzyw/WorkSpace/Projects/compilers/llvm-opt-benchmark/bench/hdf5/hdf5/src/H5FS.c\00", align 1
@H5E_RESOURCE_g = external global i64, align 8
@__func__.H5FS__hdr_dest = private unnamed_addr constant [15 x i8] c"H5FS__hdr_dest\00", align 1
@H5E_CANTRELEASE_g = external global i64, align 8
@.str.31 = private unnamed_addr constant [33 x i8] c"unable to finalize section class\00", align 1

; Function Attrs: nounwind uwtable
define i32 @H5FS__hdr_dest(ptr noundef %0) #0 {
  %2 = alloca ptr, align 8
  %3 = alloca i32, align 4
  %4 = alloca i32, align 4
  %5 = alloca i8, align 1
  store ptr %0, ptr %2, align 8
  store i32 0, ptr %4, align 4
  store i8 0, ptr %5, align 1
  store i32 0, ptr %3, align 4
  br label %6

6:                                                ; preds = %57, %1
  %7 = load i32, ptr %3, align 4
  %8 = load ptr, ptr %2, align 8
  %9 = getelementptr inbounds %struct.H5FS_t, ptr %8, i32 0, i32 6
  %10 = load i16, ptr %9, align 4
  %11 = zext i16 %10 to i32
  %12 = icmp ult i32 %7, %11
  br i1 %12, label %13, label %60

13:                                               ; preds = %6
  %14 = load ptr, ptr %2, align 8
  %15 = getelementptr inbounds %struct.H5FS_t, ptr %14, i32 0, i32 26
  %16 = load ptr, ptr %15, align 8
  %17 = load i32, ptr %3, align 4
  %18 = zext i32 %17 to i64
  %19 = getelementptr inbounds %struct.H5FS_section_class_t, ptr %16, i64 %18
  %20 = getelementptr inbounds %struct.H5FS_section_class_t, ptr %19, i32 0, i32 5
  %21 = load ptr, ptr %20, align 8
  %22 = icmp ne ptr %21, null
  br i1 %22, label %23, label %56

23:                                               ; preds = %13
  %24 = load ptr, ptr %2, align 8
  %25 = getelementptr inbounds %struct.H5FS_t, ptr %24, i32 0, i32 26
  %26 = load ptr, ptr %25, align 8
  %27 = load i32, ptr %3, align 4
  %28 = zext i32 %27 to i64
  %29 = getelementptr inbounds %struct.H5FS_section_class_t, ptr %26, i64 %28
  %30 = getelementptr inbounds %struct.H5FS_section_class_t, ptr %29, i32 0, i32 5
  %31 = load ptr, ptr %30, align 8
  %32 = load ptr, ptr %2, align 8
  %33 = getelementptr inbounds %struct.H5FS_t, ptr %32, i32 0, i32 26
  %34 = load ptr, ptr %33, align 8
  %35 = load i32, ptr %3, align 4
  %36 = zext i32 %35 to i64
  %37 = getelementptr inbounds %struct.H5FS_section_class_t, ptr %34, i64 %36
  %38 = call i32 %31(ptr noundef %37)
  %39 = icmp slt i32 %38, 0
  br i1 %39, label %40, label %55

40:                                               ; preds = %23
  br label %41

41:                                               ; preds = %40
  br label %42

42:                                               ; preds = %41
  br label %43

43:                                               ; preds = %42
  %44 = load i64, ptr @H5E_RESOURCE_g, align 8
  %45 = load i64, ptr @H5E_CANTRELEASE_g, align 8
  %46 = call i32 (ptr, ptr, i32, i64, i64, ptr, ...) @H5E_printf_stack(ptr noundef @.str.2, ptr noundef @__func__.H5FS__hdr_dest, i32 noundef 1000, i64 noundef %44, i64 noundef %45, ptr noundef @.str.31)
  br label %47

47:                                               ; preds = %43
  store i8 1, ptr %5, align 1
  %48 = load i8, ptr %5, align 1
  %49 = trunc i8 %48 to i1
  %50 = zext i1 %49 to i8
  store i8 %50, ptr %5, align 1
  br label %51

51:                                               ; preds = %47
  br label %52

52:                                               ; preds = %51
  store i32 -1, ptr %4, align 4
  br label %75

53:                                               ; No predecessors!
  br label %54

54:                                               ; preds = %53
  br label %55

55:                                               ; preds = %54, %23
  br label %56

56:                                               ; preds = %55, %13
  br label %57

57:                                               ; preds = %56
  %58 = load i32, ptr %3, align 4
  %59 = add i32 %58, 1
  store i32 %59, ptr %3, align 4
  br label %6

60:                                               ; preds = %6
  %61 = load ptr, ptr %2, align 8
  %62 = getelementptr inbounds %struct.H5FS_t, ptr %61, i32 0, i32 26
  %63 = load ptr, ptr %62, align 8
  %64 = icmp ne ptr %63, null
  br i1 %64, label %65, label %72

65:                                               ; preds = %60
  %66 = load ptr, ptr %2, align 8
  %67 = getelementptr inbounds %struct.H5FS_t, ptr %66, i32 0, i32 26
  %68 = load ptr, ptr %67, align 8
  %69 = call ptr @H5FL_seq_free(ptr noundef @H5_H5FS_section_class_t_seq_free_list, ptr noundef %68)
  %70 = load ptr, ptr %2, align 8
  %71 = getelementptr inbounds %struct.H5FS_t, ptr %70, i32 0, i32 26
  store ptr %69, ptr %71, align 8
  br label %72

72:                                               ; preds = %65, %60
  %73 = load ptr, ptr %2, align 8
  %74 = call ptr @H5FL_reg_free(ptr noundef @H5_H5FS_t_reg_free_list, ptr noundef %73)
  store ptr %74, ptr %2, align 8
  br label %75

75:                                               ; preds = %72, %52
  %76 = load i32, ptr %4, align 4
  ret i32 %76
}