; Function Attrs: nounwind uwtable
define range(i32 -1, 1) i32 @H5FS__hdr_dest(ptr noundef %0) local_unnamed_addr #0 {
  %2 = getelementptr inbounds i8, ptr %0, i64 284
  %3 = load i16, ptr %2, align 4
  %.not19 = icmp eq i16 %3, 0
  br i1 %.not19, label %._crit_edge, label %.lr.ph

.lr.ph:                                           ; preds = %1
  %4 = getelementptr inbounds i8, ptr %0, i64 408
  br label %5

5:                                                ; preds = %.lr.ph, %18
  %6 = phi i16 [ %3, %.lr.ph ], [ %19, %18 ]
  %indvars.iv = phi i64 [ 0, %.lr.ph ], [ %indvars.iv.next, %18 ]
  %7 = load ptr, ptr %4, align 8
  %8 = getelementptr inbounds %struct.H5FS_section_class_t, ptr %7, i64 %indvars.iv
  %9 = getelementptr inbounds i8, ptr %8, i64 40
  %10 = load ptr, ptr %9, align 8
  %.not17 = icmp eq ptr %10, null
  br i1 %.not17, label %18, label %11

11:                                               ; preds = %5
  %12 = tail call i32 %10(ptr noundef nonnull %8) #5
  %13 = icmp slt i32 %12, 0
  br i1 %13, label %14, label %._crit_edge21

._crit_edge21:                                    ; preds = %11
  %.pre = load i16, ptr %2, align 4
  br label %18

14:                                               ; preds = %11
  %15 = load i64, ptr @H5E_RESOURCE_g, align 8
  %16 = load i64, ptr @H5E_CANTRELEASE_g, align 8
  %17 = tail call i32 (ptr, ptr, i32, i64, i64, ptr, ...) @H5E_printf_stack(ptr noundef nonnull @.str.2, ptr noundef nonnull @__func__.H5FS__hdr_dest, i32 noundef 1000, i64 noundef %15, i64 noundef %16, ptr noundef nonnull @.str.31) #5
  br label %28

18:                                               ; preds = %._crit_edge21, %5
  %19 = phi i16 [ %.pre, %._crit_edge21 ], [ %6, %5 ]
  %indvars.iv.next = add nuw nsw i64 %indvars.iv, 1
  %20 = zext i16 %19 to i64
  %21 = icmp ult i64 %indvars.iv.next, %20
  br i1 %21, label %5, label %._crit_edge

._crit_edge:                                      ; preds = %18, %1
  %22 = getelementptr inbounds i8, ptr %0, i64 408
  %23 = load ptr, ptr %22, align 8
  %.not = icmp eq ptr %23, null
  br i1 %.not, label %26, label %24

24:                                               ; preds = %._crit_edge
  %25 = tail call ptr @H5FL_seq_free(ptr noundef nonnull @H5_H5FS_section_class_t_seq_free_list, ptr noundef nonnull %23) #5
  store ptr %25, ptr %22, align 8
  br label %26

26:                                               ; preds = %24, %._crit_edge
  %27 = tail call ptr @H5FL_reg_free(ptr noundef nonnull @H5_H5FS_t_reg_free_list, ptr noundef nonnull %0) #5
  br label %28

28:                                               ; preds = %26, %14
  %.0 = phi i32 [ -1, %14 ], [ 0, %26 ]
  ret i32 %.0
}